; Function Attrs: nounwind uwtable
define hidden noalias noundef ptr @uv__open_file(ptr noundef readonly captures(none) %0) local_unnamed_addr #0 {
  %2 = tail call i32 (ptr, i32, ...) @open64(ptr noundef readonly %0, i32 noundef 524288) #23
  %3 = icmp eq i32 %2, -1
  br i1 %3, label %4, label %uv__open_cloexec.exit

4:                                                ; preds = %1
  %5 = tail call ptr @__errno_location() #24
  %6 = load i32, ptr %5, align 4
  %7 = sub nsw i32 0, %6
  br label %uv__open_cloexec.exit

uv__open_cloexec.exit:                            ; preds = %1, %4
  %.0.i = phi i32 [ %7, %4 ], [ %2, %1 ]
  %8 = icmp slt i32 %.0.i, 0
  br i1 %8, label %uv__close.exit, label %9

9:                                                ; preds = %uv__open_cloexec.exit
  %10 = tail call noalias ptr @fdopen(i32 noundef %.0.i, ptr noundef nonnull @.str) #23
  %11 = icmp eq ptr %10, null
  br i1 %11, label %12, label %uv__close.exit

12:                                               ; preds = %9
  %13 = tail call ptr @__errno_location() #24
  %14 = load i32, ptr %13, align 4
  %15 = tail call i64 (i64, ...) @syscall(i64 noundef 3, i32 noundef %.0.i) #23
  %16 = and i64 %15, 4294967295
  %17 = icmp eq i64 %16, 4294967295
  br i1 %17, label %18, label %uv__close.exit

18:                                               ; preds = %12
  store i32 %14, ptr %13, align 4
  br label %uv__close.exit

uv__close.exit:                                   ; preds = %18, %12, %9, %uv__open_cloexec.exit
  %.0 = phi ptr [ null, %uv__open_cloexec.exit ], [ %10, %9 ], [ null, %12 ], [ null, %18 ]
  ret ptr %.0
}